target datalayout = "e-m:e-p270:32:32-p271:32:32-p272:64:64-i64:64-i128:128-f80:128-n8:16:32:64-S128"
target triple = "x86_64-unknown-linux-gnu"

%"struct.std::_Vector_base.24" = type { %"struct.std::_Vector_base<Assimp::BaseImporter *, std::allocator<Assimp::BaseImporter *>>::_Vector_impl" }
%"struct.std::_Vector_base<Assimp::BaseImporter *, std::allocator<Assimp::BaseImporter *>>::_Vector_impl" = type { %"struct.std::_Vector_base<Assimp::BaseImporter *, std::allocator<Assimp::BaseImporter *>>::_Vector_impl_data" }
%"struct.std::_Vector_base<Assimp::BaseImporter *, std::allocator<Assimp::BaseImporter *>>::_Vector_impl_data" = type { ptr, ptr, ptr }

; Function Attrs: mustprogress nounwind uwtable
define linkonce_odr noundef nonnull align 8 dereferenceable(8) ptr @_ZNSt6vectorIPN6Assimp12BaseImporterESaIS2_EEixEm(ptr noundef nonnull align 8 dereferenceable(24) %this, i64 noundef %__n) #0 comdat align 2 {
entry:
  %this.addr = alloca ptr, align 8
  %__n.addr = alloca i64, align 8
  store ptr %this, ptr %this.addr, align 8
  store i64 %__n, ptr %__n.addr, align 8
  %this1 = load ptr, ptr %this.addr, align 8
  %_M_impl = getelementptr inbounds %"struct.std::_Vector_base.24", ptr %this1, i32 0, i32 0
  %_M_start = getelementptr inbounds %"struct.std::_Vector_base<Assimp::BaseImporter *, std::allocator<Assimp::BaseImporter *>>::_Vector_impl_data", ptr %_M_impl, i32 0, i32 0
  %0 = load ptr, ptr %_M_start, align 8
  %1 = load i64, ptr %__n.addr, align 8
  %add.ptr = getelementptr inbounds ptr, ptr %0, i64 %1
  ret ptr %add.ptr
}

; Function Attrs: mustprogress nounwind uwtable
define linkonce_odr noundef i64 @_ZNKSt6vectorIPN6Assimp12BaseImporterESaIS2_EE4sizeEv(ptr noundef nonnull align 8 dereferenceable(24) %this) #0 comdat align 2 {
entry:
  %this.addr = alloca ptr, align 8
  store ptr %this, ptr %this.addr, align 8
  %this1 = load ptr, ptr %this.addr, align 8
  %_M_impl = getelementptr inbounds %"struct.std::_Vector_base.24", ptr %this1, i32 0, i32 0
  %_M_finish = getelementptr inbounds %"struct.std::_Vector_base<Assimp::BaseImporter *, std::allocator<Assimp::BaseImporter *>>::_Vector_impl_data", ptr %_M_impl, i32 0, i32 1
  %0 = load ptr, ptr %_M_finish, align 8
  %_M_impl2 = getelementptr inbounds %"struct.std::_Vector_base.24", ptr %this1, i32 0, i32 0
  %_M_start = getelementptr inbounds %"struct.std::_Vector_base<Assimp::BaseImporter *, std::allocator<Assimp::BaseImporter *>>::_Vector_impl_data", ptr %_M_impl2, i32 0, i32 0
  %1 = load ptr, ptr %_M_start, align 8
  %sub.ptr.lhs.cast = ptrtoint ptr %0 to i64
  %sub.ptr.rhs.cast = ptrtoint ptr %1 to i64
  %sub.ptr.sub = sub i64 %sub.ptr.lhs.cast, %sub.ptr.rhs.cast
  %sub.ptr.div = sdiv exact i64 %sub.ptr.sub, 8
  ret i64 %sub.ptr.div
}

; Function Attrs: mustprogress nounwind uwtable
define hidden void @_ZN6Assimp26DeleteImporterInstanceListERSt6vectorIPNS_12BaseImporterESaIS2_EE(ptr noundef nonnull align 8 dereferenceable(24) %deleteList) #0 {
entry:
  %deleteList.addr = alloca ptr, align 8
  %i = alloca i64, align 8
  store ptr %deleteList, ptr %deleteList.addr, align 8
  store i64 0, ptr %i, align 8
  br label %for.cond

for.cond:                                         ; preds = %for.inc, %entry
  %0 = load i64, ptr %i, align 8
  %1 = load ptr, ptr %deleteList.addr, align 8
  %call = call noundef i64 @_ZNKSt6vectorIPN6Assimp12BaseImporterESaIS2_EE4sizeEv(ptr noundef nonnull align 8 dereferenceable(24) %1) #5
  %cmp = icmp ult i64 %0, %call
  br i1 %cmp, label %for.body, label %for.end

for.body:                                         ; preds = %for.cond
  %2 = load ptr, ptr %deleteList.addr, align 8
  %3 = load i64, ptr %i, align 8
  %call1 = call noundef nonnull align 8 dereferenceable(8) ptr @_ZNSt6vectorIPN6Assimp12BaseImporterESaIS2_EEixEm(ptr noundef nonnull align 8 dereferenceable(24) %2, i64 noundef %3) #5
  %4 = load ptr, ptr %call1, align 8
  %isnull = icmp eq ptr %4, null
  br i1 %isnull, label %delete.end, label %delete.notnull

delete.notnull:                                   ; preds = %for.body
  %vtable = load ptr, ptr %4, align 8
  %vfn = getelementptr inbounds ptr, ptr %vtable, i64 1
  %5 = load ptr, ptr %vfn, align 8
  call void %5(ptr noundef nonnull align 8 dereferenceable(72) %4) #5
  br label %delete.end

delete.end:                                       ; preds = %delete.notnull, %for.body
  %6 = load ptr, ptr %deleteList.addr, align 8
  %7 = load i64, ptr %i, align 8
  %call2 = call noundef nonnull align 8 dereferenceable(8) ptr @_ZNSt6vectorIPN6Assimp12BaseImporterESaIS2_EEixEm(ptr noundef nonnull align 8 dereferenceable(24) %6, i64 noundef %7) #5
  store ptr null, ptr %call2, align 8
  br label %for.inc

for.inc:                                          ; preds = %delete.end
  %8 = load i64, ptr %i, align 8
  %inc = add i64 %8, 1
  store i64 %inc, ptr %i, align 8
  br label %for.cond, !llvm.loop !4

for.end:                                          ; preds = %for.cond
  ret void
}