; Function Attrs: mustprogress nounwind uwtable
define hidden void @_ZN6Assimp26DeleteImporterInstanceListERSt6vectorIPNS_12BaseImporterESaIS2_EE(ptr nocapture noundef nonnull readonly align 8 dereferenceable(24) %deleteList) local_unnamed_addr #0 {
entry:
  %_M_finish.i = getelementptr inbounds i8, ptr %deleteList, i64 8
  %0 = load ptr, ptr %_M_finish.i, align 8
  %1 = load ptr, ptr %deleteList, align 8
  %cmp11.not = icmp eq ptr %0, %1
  br i1 %cmp11.not, label %for.end, label %for.body

for.body:                                         ; preds = %entry, %delete.end
  %2 = phi ptr [ %7, %delete.end ], [ %1, %entry ]
  %i.012 = phi i64 [ %inc, %delete.end ], [ 0, %entry ]
  %add.ptr.i = getelementptr inbounds ptr, ptr %2, i64 %i.012
  %3 = load ptr, ptr %add.ptr.i, align 8
  %isnull = icmp eq ptr %3, null
  br i1 %isnull, label %delete.end, label %delete.notnull

delete.notnull:                                   ; preds = %for.body
  %vtable = load ptr, ptr %3, align 8
  %vfn = getelementptr inbounds i8, ptr %vtable, i64 8
  %4 = load ptr, ptr %vfn, align 8
  tail call void %4(ptr noundef nonnull align 8 dereferenceable(72) %3) #17
  %.pre = load ptr, ptr %deleteList, align 8
  br label %delete.end

delete.end:                                       ; preds = %delete.notnull, %for.body
  %5 = phi ptr [ %.pre, %delete.notnull ], [ %2, %for.body ]
  %add.ptr.i6 = getelementptr inbounds ptr, ptr %5, i64 %i.012
  store ptr null, ptr %add.ptr.i6, align 8
  %inc = add nuw i64 %i.012, 1
  %6 = load ptr, ptr %_M_finish.i, align 8
  %7 = load ptr, ptr %deleteList, align 8
  %sub.ptr.lhs.cast.i = ptrtoint ptr %6 to i64
  %sub.ptr.rhs.cast.i = ptrtoint ptr %7 to i64
  %sub.ptr.sub.i = sub i64 %sub.ptr.lhs.cast.i, %sub.ptr.rhs.cast.i
  %sub.ptr.div.i = ashr exact i64 %sub.ptr.sub.i, 3
  %cmp = icmp ult i64 %inc, %sub.ptr.div.i
  br i1 %cmp, label %for.body, label %for.end, !llvm.loop !4

for.end:                                          ; preds = %delete.end, %entry
  ret void
}